                00001 ;main file for trs-80 shell
                00002  
                00003 *INCLUDE objdefsZ80.asm ; equs
main.asm(3): unable to include file
                00004  
                00005 ;QINPUT equ 1bb3h               ; ROM ROUTINES
    = 0033      00006 CRTBYTE equ  0033H
    = 41E8      00007 INBUF equ 41e8h
    = 01C9      00008 CLS equ 01c9h
                00009 ;OUTLIN equ 28a7h               ; src str in HL/
                00010 
                00011         ORG 5200H
                00012 START
5200  CDC901    00013                 call CLS
5203  210000    00014                 ld hl,welcome ; print welcome,author,version
main.asm(14): undefined symbol
5206  CD6152    00015                 call OUTLIN
5209  CDB152    00016                 call printcr
520C  210000    00017                 ld hl,author
main.asm(17): undefined symbol
520F  CD6152    00018                 call OUTLIN
5212  CDB152    00019                 call printcr
5215  210000    00020                 ld hl,version
main.asm(20): undefined symbol
5218  CD6152    00021                 call OUTLIN
521B  CDB152    00022                 call printcr
521E  CDB152    00023                 call printcr
5221  CD0000    00024                 call look_sub
main.asm(24): undefined symbol
5224  CD2B52    00025 $inp?   call getcommand
5227  C32452    00026                 jp $inp?
522A  C9        00027                 ret
                00028                 
                00029 getcommand
                00030                 ;call QINPUT
522B  CD4952    00031                 call getlin
522E  CD0000    00032                 call parse                              ; get the words
main.asm(32): undefined symbol
5231  3A0000    00033                 ld a,(sentence)
main.asm(33): undefined symbol
5234  FE00      00034                 cp 0
5236  CA2452    00035                 jp z,$inp?
5239  CD0000    00036                 call validate_words             ; make sure verb,io,do are in tables
main.asm(36): undefined symbol
523C  CD0000    00037                 call encode                             ; try to map words to objects
main.asm(37): undefined symbol
523F  CD0000    00038                 call validate_encode    ; make sure it worked
main.asm(38): undefined symbol
5242  CD0000    00039                 call run_sentence
main.asm(39): undefined symbol
5245  CD0000    00040                 call do_events
main.asm(40): undefined symbol
5248  C9        00041                 ret
                00042 
                00043 *INCLUDE doeventsZ80.asm                
main.asm(43): unable to include file
                00044 *INCLUDE io.asm 
    = 0030      00045 BUFSIZE EQU 48
    = 0040      00046 KEYIN EQU 40H
                00047 
                00048 *MOD
                00049 getlin
5249  C5        00050                 push bc
524A  D5        00051                 push de
524B  E5        00052                 push hl
                00053 ;               call clrbuf
524C  21E841    00054                 ld hl,INBUF
524F  0630      00055                 ld b,BUFSIZE
5251  CD4000    00056                 call KEYIN ; returns len in 'b'
5254  48        00057                 ld c,b
5255  0600      00058                 ld b,0
5257  09        00059                 add hl,bc
5258  3600      00060                 ld (hl),0  ; delete cr
525A  E1        00061                 pop hl
525B  D1        00062                 pop de
525C  C1        00063                 pop bc
525D  CDB152    00064                 call printcr
5260  C9        00065                 ret
                00066 
                00067 
                00068         ;hl = str
                00069 OUTLIN
5261  F5        00070                 push af
5262  C5        00071                 push bc
5263  D5        00072                 push de
5264  E5        00073                 push hl
5265  DDE5      00074                 push ix
5267  FDE5      00075                 push iy
5269  7E        00076 $lpA    ld a,(hl)
526A  FE00      00077                 cp 0
526C  CA7652    00078                 jp z,$xA
526F  23        00079                 inc hl
5270  CD3300    00080                 call CRTBYTE
5273  C36952    00081                 jp $lpA 
5276  FDE1      00082 $xA             pop iy
5278  DDE1      00083                 pop ix
527A  E1        00084                 pop hl
527B  D1        00085                 pop de
527C  C1        00086                 pop bc
527D  F1        00087                 pop af
527E  C9        00088                 ret
                00089                 
                00090 *MOD
                00091 OUTLINCR
527F  F5        00092                 push af
5280  C5        00093                 push bc
5281  D5        00094                 push de
5282  E5        00095                 push hl
5283  DDE5      00096                 push ix
5285  FDE5      00097                 push iy
5287  7E        00098 $lpB    ld a,(hl)
5288  FE00      00099                 cp 0
528A  CA9452    00100                 jp z,$xB
528D  23        00101                 inc hl
528E  CD3300    00102                 call CRTBYTE
5291  C38752    00103                 jp $lpB 
5294  CDB152    00104 $xB             call printcr
5297  FDE1      00105                 pop iy
5299  DDE1      00106                 pop ix
529B  E1        00107                 pop hl
529C  D1        00108                 pop de
529D  C1        00109                 pop bc
529E  F1        00110                 pop af
529F  C9        00111                 ret
                00112 
                00113                 
                00114                 
                00115 *MOD
                00116 clrbuf
52A0  3EFF      00117                 LD A,255
52A2  77        00118                 LD (HL),A
52A3  21E841    00119                 LD HL,INBUF
52A6  70        00120 $lpC    ld (hl),b
52A7  23        00121                 inc hl
52A8  3D        00122                 dec a
52A9  FE00      00123                 cp 0
52AB  C2A652    00124                 jp nz,$lpC
52AE  EDB0      00125                 LDIR    
52B0  C9        00126                 ret
                00127 
                00128 
                00129 ;prints a space (registers are preserved)
                00130 printcr
52B1  F5        00131         push af
52B2  C5        00132         push bc
52B3  D5        00133         push de
52B4  FDE5      00134         push iy
52B6  3E0D      00135         ld a,0dh ; carriage return
52B8  CD3300    00136         call CRTBYTE
52BB  FDE1      00137         pop iy
52BD  D1        00138         pop de
52BE  C1        00139         pop bc
52BF  F1        00140         pop af
52C0  C9        00141         ret
                00142 ;INBUF DB 0,0,0,0,0,0,0,0,0,0,0,0,0,0,0
                00143         
                00144 *INCLUDE parser.asm
main.asm(45): unable to include file
                00145 *INCLUDE look.asm
main.asm(46): unable to include file
                00146 *INCLUDE tables.asm
main.asm(47): unable to include file
                00147 *INCLUDE strings.asm
main.asm(48): unable to include file
                00148 *INCLUDE checksZ80.asm
main.asm(49): unable to include file
                00149 *INCLUDE sentencesZ80.asm
main.asm(50): unable to include file
                00150 *INCLUDE movementZ80.asm
main.asm(51): unable to include file
                00151 *INCLUDE containersZ80.asm
main.asm(52): unable to include file
                00152 *INCLUDE routinesZ80.asm
main.asm(53): unable to include file
                00153 *INCLUDE inventoryZ80.asm
main.asm(54): unable to include file
                00154 *INCLUDE open_close.asm
main.asm(55): unable to include file
                00155 *INCLUDE put.asm
main.asm(56): unable to include file
                00156 *INCLUDE miscZ80.asm
main.asm(57): unable to include file
                00157 *INCLUDE wear_sub.asm
main.asm(58): unable to include file
                00158 *INCLUDE print_rets.asm
main.asm(59): unable to include file
                00159 *INCLUDE EventsZ80.asm
main.asm(60): unable to include file
                00160 *INCLUDE articlesZ80.asm
main.asm(61): unable to include file
                00161 *INCLUDE PrepTableZ80.asm
main.asm(62): unable to include file
                00162 *INCLUDE StringTableZ80.asm
main.asm(63): unable to include file
                00163 *INCLUDE DictionaryZ80.asm
main.asm(64): unable to include file
                00164 *INCLUDE VerbTableZ80.asm
main.asm(65): unable to include file
                00165 *INCLUDE ObjectTableZ80.asm
main.asm(66): unable to include file
                00166 *INCLUDE ObjectWordTableZ80.asm
main.asm(67): unable to include file
                00167 *INCLUDE NogoTableZ80.asm
main.asm(68): unable to include file
                00168 *INCLUDE BackDropTableZ80.asm
main.asm(69): unable to include file
                00169 *INCLUDE before_table_Z80.asm
main.asm(70): unable to include file
                00170 *INCLUDE instead_table_Z80.asm
main.asm(71): unable to include file
                00171 *INCLUDE after_table_Z80.asm
main.asm(72): unable to include file
                00172 *INCLUDE CheckRulesZ80.asm
main.asm(73): unable to include file
                00173 *INCLUDE sentence_tableZ80.asm
main.asm(74): unable to include file
                00174 *INCLUDE WelcomeZ80.asm
main.asm(75): unable to include file
                00175 *INCLUDE UserVarsZ80.asm
main.asm(76): unable to include file
52C1  00        00176 score DB 0
52C2  00        00177 gameOver DB 0
52C3  00        00178 moves DB 0
                00179 ;turns_without_light DB 0
52C4  00        00180 turnsWithoutLight DB 0
52C5  64        00181 health DB 100
                00182         END START


$INP?           5224  $LPA            5269  $LPB            5287  
$LPC            52A6  $XA             5276  $XB             5294  
AUTHOR          0000  BUFSIZE         0030  CLRBUF          52A0  
CLS             01C9  CRTBYTE         0033  DO_EVENTS       0000  
ENCODE          0000  GAMEOVER        52C2  GETCOMMAND      522B  
GETLIN          5249  HEALTH          52C5  INBUF           41E8  
KEYIN           0040  LOOK_SUB        0000  MOVES           52C3  
OUTLIN          5261  OUTLINCR        527F  PARSE           0000  
PRINTCR         52B1  RUN_SENTENCE    0000  SCORE           52C1  
SENTENCE        0000  START           5200  TURNSWITHOUTLIG 52C4  
VALIDATE_ENCODE 0000  VALIDATE_WORDS  0000  VERSION         0000  
WELCOME         0000  
